; Function Attrs: mustprogress nounwind uwtable
define dso_local void @_ZNK4llvm21CheckChildTypeMatcher9printImplERNS_11raw_ostreamEj(ptr nocapture noundef nonnull readonly align 8 dereferenceable(34) %0, ptr noundef nonnull align 8 dereferenceable(48) %1, i32 noundef %2) unnamed_addr #1 align 2 {
  %4 = tail call noundef nonnull align 8 dereferenceable(48) ptr @_ZN4llvm11raw_ostream6indentEj(ptr noundef nonnull align 8 dereferenceable(48) %1, i32 noundef %2) #13
  %5 = getelementptr inbounds nuw i8, ptr %4, i64 24
  %6 = load ptr, ptr %5, align 8
  %7 = getelementptr inbounds nuw i8, ptr %4, i64 32
  %8 = load ptr, ptr %7, align 8
  %9 = ptrtoint ptr %6 to i64
  %10 = ptrtoint ptr %8 to i64
  %11 = sub i64 %9, %10
  %12 = icmp ult i64 %11, 15
  br i1 %12, label %13, label %15

13:                                               ; preds = %3
  %14 = tail call noundef nonnull align 8 dereferenceable(48) ptr @_ZN4llvm11raw_ostream5writeEPKcm(ptr noundef nonnull align 8 dereferenceable(48) %4, ptr noundef nonnull @.str.22, i64 noundef 15) #13
  br label %_ZN4llvm11raw_ostreamlsEPKc.exit

15:                                               ; preds = %3
  tail call void @llvm.memcpy.p0.p0.i64(ptr noundef nonnull align 1 dereferenceable(15) %8, ptr noundef nonnull align 1 dereferenceable(15) @.str.22, i64 15, i1 false)
  %16 = load ptr, ptr %7, align 8
  %17 = getelementptr inbounds i8, ptr %16, i64 15
  store ptr %17, ptr %7, align 8
  br label %_ZN4llvm11raw_ostreamlsEPKc.exit

_ZN4llvm11raw_ostreamlsEPKc.exit:                 ; preds = %13, %15
  %.0.i.i = phi ptr [ %14, %13 ], [ %4, %15 ]
  %18 = getelementptr inbounds nuw i8, ptr %0, i64 28
  %19 = load i32, ptr %18, align 4
  %20 = zext i32 %19 to i64
  %21 = tail call noundef nonnull align 8 dereferenceable(48) ptr @_ZN4llvm11raw_ostreamlsEm(ptr noundef nonnull align 8 dereferenceable(48) %.0.i.i, i64 noundef %20) #13
  %22 = getelementptr inbounds nuw i8, ptr %21, i64 24
  %23 = load ptr, ptr %22, align 8
  %24 = getelementptr inbounds nuw i8, ptr %21, i64 32
  %25 = load ptr, ptr %24, align 8
  %26 = icmp eq ptr %23, %25
  br i1 %26, label %27, label %29

27:                                               ; preds = %_ZN4llvm11raw_ostreamlsEPKc.exit
  %28 = tail call noundef nonnull align 8 dereferenceable(48) ptr @_ZN4llvm11raw_ostream5writeEPKcm(ptr noundef nonnull align 8 dereferenceable(48) %21, ptr noundef nonnull @.str.23, i64 noundef 1) #13
  br label %_ZN4llvm11raw_ostreamlsEPKc.exit4

29:                                               ; preds = %_ZN4llvm11raw_ostreamlsEPKc.exit
  store i8 32, ptr %25, align 1
  %30 = load ptr, ptr %24, align 8
  %31 = getelementptr inbounds i8, ptr %30, i64 1
  store ptr %31, ptr %24, align 8
  br label %_ZN4llvm11raw_ostreamlsEPKc.exit4

_ZN4llvm11raw_ostreamlsEPKc.exit4:                ; preds = %27, %29
  %.0.i.i3 = phi ptr [ %28, %27 ], [ %21, %29 ]
  %32 = getelementptr inbounds nuw i8, ptr %0, i64 32
  %33 = load i16, ptr %32, align 8
  %34 = tail call { ptr, i64 } @_ZN4llvm11getEnumNameENS_3MVT15SimpleValueTypeE(i16 noundef zeroext %33) #13
  %35 = extractvalue { ptr, i64 } %34, 0
  %36 = extractvalue { ptr, i64 } %34, 1
  %37 = getelementptr inbounds nuw i8, ptr %.0.i.i3, i64 24
  %38 = load ptr, ptr %37, align 8
  %39 = getelementptr inbounds nuw i8, ptr %.0.i.i3, i64 32
  %40 = load ptr, ptr %39, align 8
  %41 = ptrtoint ptr %38 to i64
  %42 = ptrtoint ptr %40 to i64
  %43 = sub i64 %41, %42
  %44 = icmp ugt i64 %36, %43
  br i1 %44, label %45, label %47

45:                                               ; preds = %_ZN4llvm11raw_ostreamlsEPKc.exit4
  %46 = tail call noundef nonnull align 8 dereferenceable(48) ptr @_ZN4llvm11raw_ostream5writeEPKcm(ptr noundef nonnull align 8 dereferenceable(48) %.0.i.i3, ptr noundef %35, i64 noundef %36) #13
  %.phi.trans.insert = getelementptr inbounds nuw i8, ptr %46, i64 32
  %.pre = load ptr, ptr %.phi.trans.insert, align 8
  br label %_ZN4llvm11raw_ostreamlsENS_9StringRefE.exit

47:                                               ; preds = %_ZN4llvm11raw_ostreamlsEPKc.exit4
  %.not.i = icmp eq i64 %36, 0
  br i1 %.not.i, label %_ZN4llvm11raw_ostreamlsENS_9StringRefE.exit, label %48

48:                                               ; preds = %47
  tail call void @llvm.memcpy.p0.p0.i64(ptr align 1 %40, ptr align 1 %35, i64 %36, i1 false)
  %49 = load ptr, ptr %39, align 8
  %50 = getelementptr inbounds i8, ptr %49, i64 %36
  store ptr %50, ptr %39, align 8
  br label %_ZN4llvm11raw_ostreamlsENS_9StringRefE.exit

_ZN4llvm11raw_ostreamlsENS_9StringRefE.exit:      ; preds = %45, %47, %48
  %51 = phi ptr [ %.pre, %45 ], [ %50, %48 ], [ %40, %47 ]
  %.0.i = phi ptr [ %46, %45 ], [ %.0.i.i3, %48 ], [ %.0.i.i3, %47 ]
  %52 = getelementptr inbounds nuw i8, ptr %.0.i, i64 24
  %53 = load ptr, ptr %52, align 8
  %.not.i5 = icmp ult ptr %51, %53
  br i1 %.not.i5, label %56, label %54

54:                                               ; preds = %_ZN4llvm11raw_ostreamlsENS_9StringRefE.exit
  %55 = tail call noundef nonnull align 8 dereferenceable(48) ptr @_ZN4llvm11raw_ostream5writeEh(ptr noundef nonnull align 8 dereferenceable(48) %.0.i, i8 noundef zeroext 10) #13
  br label %_ZN4llvm11raw_ostreamlsEc.exit

56:                                               ; preds = %_ZN4llvm11raw_ostreamlsENS_9StringRefE.exit
  %57 = getelementptr inbounds nuw i8, ptr %.0.i, i64 32
  %58 = getelementptr inbounds i8, ptr %51, i64 1
  store ptr %58, ptr %57, align 8
  store i8 10, ptr %51, align 1
  br label %_ZN4llvm11raw_ostreamlsEc.exit

_ZN4llvm11raw_ostreamlsEc.exit:                   ; preds = %54, %56
  ret void
}